; Function Attrs: mustprogress null_pointer_is_valid sspstrong uwtable
define void @_ZN25DissectorTablesProxyModelC2EP7QObject(ptr noundef align 8 dereferenceable_or_null(88) %0, ptr noundef %1) unnamed_addr #5 align 2 personality ptr @__gxx_personality_v0 {
  tail call void @_ZN21QSortFilterProxyModelC2EP7QObject(ptr noundef align 8 dereferenceable_or_null(16) %0, ptr noundef %1)
  store ptr getelementptr inbounds nuw inrange(-16, 456) (i8, ptr @_ZTV25DissectorTablesProxyModel, i64 16), ptr %0, align 8
  %3 = getelementptr inbounds nuw i8, ptr %0, i64 16
  invoke void @_ZNK11QMetaObject2trEPKcS1_i(ptr dead_on_unwind nonnull writable sret(%class.QString) align 8 %3, ptr noundef nonnull align 8 dereferenceable_or_null(56) @_ZN25DissectorTablesProxyModel16staticMetaObjectE, ptr noundef nonnull @.str.3, ptr noundef null, i32 noundef -1)
          to label %_ZN25DissectorTablesProxyModel2trEPKcS1_i.exit unwind label %5

_ZN25DissectorTablesProxyModel2trEPKcS1_i.exit:   ; preds = %2
  %4 = getelementptr inbounds nuw i8, ptr %0, i64 40
  tail call void @llvm.memset.p0.i64(ptr noundef nonnull align 8 dereferenceable(48) %4, i8 0, i64 48, i1 false)
  ret void

5:                                                ; preds = %2
  %6 = landingpad { ptr, i32 }
          cleanup
  tail call void @_ZN21QSortFilterProxyModelD2Ev(ptr noundef align 8 dereferenceable_or_null(16) %0) #22
  resume { ptr, i32 } %6
}